target datalayout = "e-m:e-p270:32:32-p271:32:32-p272:64:64-i64:64-i128:128-f80:128-n8:16:32:64-S128"
target triple = "x86_64-pc-linux-gnu"

%struct.normal_encoding = type { %struct.encoding, [256 x i8], ptr, ptr, ptr, ptr, ptr, ptr, ptr, ptr, ptr }
%struct.encoding = type { [3 x ptr], [2 x ptr], ptr, ptr, ptr, ptr, ptr, ptr, ptr, ptr, ptr, ptr, i32, i8, i8 }

; Function Attrs: nounwind uwtable
define internal i32 @unicode_byte_type(i8 noundef signext %0, i8 noundef signext %1) #0 {
  %3 = alloca i32, align 4
  %4 = alloca i8, align 1
  %5 = alloca i8, align 1
  store i8 %0, ptr %4, align 1, !tbaa !13
  store i8 %1, ptr %5, align 1, !tbaa !13
  %6 = load i8, ptr %4, align 1, !tbaa !13
  %7 = zext i8 %6 to i32
  switch i32 %7, label %15 [
    i32 216, label %8
    i32 217, label %8
    i32 218, label %8
    i32 219, label %8
    i32 220, label %9
    i32 221, label %9
    i32 222, label %9
    i32 223, label %9
    i32 255, label %10
  ]

8:                                                ; preds = %2, %2, %2, %2
  store i32 7, ptr %3, align 4
  br label %16

9:                                                ; preds = %2, %2, %2, %2
  store i32 8, ptr %3, align 4
  br label %16

10:                                               ; preds = %2
  %11 = load i8, ptr %5, align 1, !tbaa !13
  %12 = zext i8 %11 to i32
  switch i32 %12, label %14 [
    i32 255, label %13
    i32 254, label %13
  ]

13:                                               ; preds = %10, %10
  store i32 0, ptr %3, align 4
  br label %16

14:                                               ; preds = %10
  br label %15

15:                                               ; preds = %2, %14
  store i32 29, ptr %3, align 4
  br label %16

16:                                               ; preds = %15, %13, %9, %8
  %17 = load i32, ptr %3, align 4
  ret i32 %17
}

; Function Attrs: nounwind uwtable
define internal i32 @big2_scanPercent(ptr noundef %0, ptr noundef %1, ptr noundef %2, ptr noundef %3) #0 {
  %5 = alloca i32, align 4
  %6 = alloca ptr, align 8
  %7 = alloca ptr, align 8
  %8 = alloca ptr, align 8
  %9 = alloca ptr, align 8
  store ptr %0, ptr %6, align 8, !tbaa !45
  store ptr %1, ptr %7, align 8, !tbaa !4
  store ptr %2, ptr %8, align 8, !tbaa !4
  store ptr %3, ptr %9, align 8, !tbaa !9
  %10 = load ptr, ptr %8, align 8, !tbaa !4
  %11 = load ptr, ptr %7, align 8, !tbaa !4
  %12 = ptrtoint ptr %10 to i64
  %13 = ptrtoint ptr %11 to i64
  %14 = sub i64 %12, %13
  %15 = icmp sge i64 %14, 2
  br i1 %15, label %17, label %16

16:                                               ; preds = %4
  store i32 -1, ptr %5, align 4
  br label %224

17:                                               ; preds = %4
  %18 = load ptr, ptr %7, align 8, !tbaa !4
  %19 = getelementptr inbounds i8, ptr %18, i64 0
  %20 = load i8, ptr %19, align 1, !tbaa !13
  %21 = sext i8 %20 to i32
  %22 = icmp eq i32 %21, 0
  br i1 %22, label %23, label %33

23:                                               ; preds = %17
  %24 = load ptr, ptr %6, align 8, !tbaa !45
  %25 = getelementptr inbounds nuw %struct.normal_encoding, ptr %24, i32 0, i32 1
  %26 = load ptr, ptr %7, align 8, !tbaa !4
  %27 = getelementptr inbounds i8, ptr %26, i64 1
  %28 = load i8, ptr %27, align 1, !tbaa !13
  %29 = zext i8 %28 to i64
  %30 = getelementptr inbounds nuw [256 x i8], ptr %25, i64 0, i64 %29
  %31 = load i8, ptr %30, align 1, !tbaa !13
  %32 = zext i8 %31 to i32
  br label %41

33:                                               ; preds = %17
  %34 = load ptr, ptr %7, align 8, !tbaa !4
  %35 = getelementptr inbounds i8, ptr %34, i64 0
  %36 = load i8, ptr %35, align 1, !tbaa !13
  %37 = load ptr, ptr %7, align 8, !tbaa !4
  %38 = getelementptr inbounds i8, ptr %37, i64 1
  %39 = load i8, ptr %38, align 1, !tbaa !13
  %40 = call i32 @unicode_byte_type(i8 noundef signext %36, i8 noundef signext %39)
  br label %41

41:                                               ; preds = %33, %23
  %42 = phi i32 [ %32, %23 ], [ %40, %33 ]
  switch i32 %42, label %112 [
    i32 29, label %43
    i32 22, label %73
    i32 24, label %73
    i32 5, label %76
    i32 6, label %87
    i32 7, label %98
    i32 21, label %109
    i32 10, label %109
    i32 9, label %109
    i32 30, label %109
  ]

43:                                               ; preds = %41
  %44 = load ptr, ptr %7, align 8, !tbaa !4
  %45 = getelementptr inbounds i8, ptr %44, i64 0
  %46 = load i8, ptr %45, align 1, !tbaa !13
  %47 = zext i8 %46 to i64
  %48 = getelementptr inbounds nuw [256 x i8], ptr @nmstrtPages, i64 0, i64 %47
  %49 = load i8, ptr %48, align 1, !tbaa !13
  %50 = zext i8 %49 to i32
  %51 = shl i32 %50, 3
  %52 = load ptr, ptr %7, align 8, !tbaa !4
  %53 = getelementptr inbounds i8, ptr %52, i64 1
  %54 = load i8, ptr %53, align 1, !tbaa !13
  %55 = zext i8 %54 to i32
  %56 = ashr i32 %55, 5
  %57 = add nsw i32 %51, %56
  %58 = sext i32 %57 to i64
  %59 = getelementptr inbounds [320 x i32], ptr @namingBitmap, i64 0, i64 %58
  %60 = load i32, ptr %59, align 4, !tbaa !16
  %61 = load ptr, ptr %7, align 8, !tbaa !4
  %62 = getelementptr inbounds i8, ptr %61, i64 1
  %63 = load i8, ptr %62, align 1, !tbaa !13
  %64 = zext i8 %63 to i32
  %65 = and i32 %64, 31
  %66 = shl i32 1, %65
  %67 = and i32 %60, %66
  %68 = icmp ne i32 %67, 0
  br i1 %68, label %72, label %69

69:                                               ; preds = %43
  %70 = load ptr, ptr %7, align 8, !tbaa !4
  %71 = load ptr, ptr %9, align 8, !tbaa !9
  store ptr %70, ptr %71, align 8, !tbaa !4
  store i32 0, ptr %5, align 4
  br label %224

72:                                               ; preds = %43
  br label %73

73:                                               ; preds = %41, %41, %72
  %74 = load ptr, ptr %7, align 8, !tbaa !4
  %75 = getelementptr inbounds i8, ptr %74, i64 2
  store ptr %75, ptr %7, align 8, !tbaa !4
  br label %115

76:                                               ; preds = %41
  %77 = load ptr, ptr %8, align 8, !tbaa !4
  %78 = load ptr, ptr %7, align 8, !tbaa !4
  %79 = ptrtoint ptr %77 to i64
  %80 = ptrtoint ptr %78 to i64
  %81 = sub i64 %79, %80
  %82 = icmp slt i64 %81, 2
  br i1 %82, label %83, label %84

83:                                               ; preds = %76
  store i32 -2, ptr %5, align 4
  br label %224

84:                                               ; preds = %76
  %85 = load ptr, ptr %7, align 8, !tbaa !4
  %86 = load ptr, ptr %9, align 8, !tbaa !9
  store ptr %85, ptr %86, align 8, !tbaa !4
  store i32 0, ptr %5, align 4
  br label %224

87:                                               ; preds = %41
  %88 = load ptr, ptr %8, align 8, !tbaa !4
  %89 = load ptr, ptr %7, align 8, !tbaa !4
  %90 = ptrtoint ptr %88 to i64
  %91 = ptrtoint ptr %89 to i64
  %92 = sub i64 %90, %91
  %93 = icmp slt i64 %92, 3
  br i1 %93, label %94, label %95

94:                                               ; preds = %87
  store i32 -2, ptr %5, align 4
  br label %224

95:                                               ; preds = %87
  %96 = load ptr, ptr %7, align 8, !tbaa !4
  %97 = load ptr, ptr %9, align 8, !tbaa !9
  store ptr %96, ptr %97, align 8, !tbaa !4
  store i32 0, ptr %5, align 4
  br label %224

98:                                               ; preds = %41
  %99 = load ptr, ptr %8, align 8, !tbaa !4
  %100 = load ptr, ptr %7, align 8, !tbaa !4
  %101 = ptrtoint ptr %99 to i64
  %102 = ptrtoint ptr %100 to i64
  %103 = sub i64 %101, %102
  %104 = icmp slt i64 %103, 4
  br i1 %104, label %105, label %106

105:                                              ; preds = %98
  store i32 -2, ptr %5, align 4
  br label %224

106:                                              ; preds = %98
  %107 = load ptr, ptr %7, align 8, !tbaa !4
  %108 = load ptr, ptr %9, align 8, !tbaa !9
  store ptr %107, ptr %108, align 8, !tbaa !4
  store i32 0, ptr %5, align 4
  br label %224

109:                                              ; preds = %41, %41, %41, %41
  %110 = load ptr, ptr %7, align 8, !tbaa !4
  %111 = load ptr, ptr %9, align 8, !tbaa !9
  store ptr %110, ptr %111, align 8, !tbaa !4
  store i32 22, ptr %5, align 4
  br label %224

112:                                              ; preds = %41
  %113 = load ptr, ptr %7, align 8, !tbaa !4
  %114 = load ptr, ptr %9, align 8, !tbaa !9
  store ptr %113, ptr %114, align 8, !tbaa !4
  store i32 0, ptr %5, align 4
  br label %224

115:                                              ; preds = %73
  br label %116

116:                                              ; preds = %222, %115
  %117 = load ptr, ptr %8, align 8, !tbaa !4
  %118 = load ptr, ptr %7, align 8, !tbaa !4
  %119 = ptrtoint ptr %117 to i64
  %120 = ptrtoint ptr %118 to i64
  %121 = sub i64 %119, %120
  %122 = icmp sge i64 %121, 2
  br i1 %122, label %123, label %223

123:                                              ; preds = %116
  %124 = load ptr, ptr %7, align 8, !tbaa !4
  %125 = getelementptr inbounds i8, ptr %124, i64 0
  %126 = load i8, ptr %125, align 1, !tbaa !13
  %127 = sext i8 %126 to i32
  %128 = icmp eq i32 %127, 0
  br i1 %128, label %129, label %139

129:                                              ; preds = %123
  %130 = load ptr, ptr %6, align 8, !tbaa !45
  %131 = getelementptr inbounds nuw %struct.normal_encoding, ptr %130, i32 0, i32 1
  %132 = load ptr, ptr %7, align 8, !tbaa !4
  %133 = getelementptr inbounds i8, ptr %132, i64 1
  %134 = load i8, ptr %133, align 1, !tbaa !13
  %135 = zext i8 %134 to i64
  %136 = getelementptr inbounds nuw [256 x i8], ptr %131, i64 0, i64 %135
  %137 = load i8, ptr %136, align 1, !tbaa !13
  %138 = zext i8 %137 to i32
  br label %147

139:                                              ; preds = %123
  %140 = load ptr, ptr %7, align 8, !tbaa !4
  %141 = getelementptr inbounds i8, ptr %140, i64 0
  %142 = load i8, ptr %141, align 1, !tbaa !13
  %143 = load ptr, ptr %7, align 8, !tbaa !4
  %144 = getelementptr inbounds i8, ptr %143, i64 1
  %145 = load i8, ptr %144, align 1, !tbaa !13
  %146 = call i32 @unicode_byte_type(i8 noundef signext %142, i8 noundef signext %145)
  br label %147

147:                                              ; preds = %139, %129
  %148 = phi i32 [ %138, %129 ], [ %146, %139 ]
  switch i32 %148, label %219 [
    i32 29, label %149
    i32 22, label %179
    i32 24, label %179
    i32 25, label %179
    i32 26, label %179
    i32 27, label %179
    i32 5, label %182
    i32 6, label %193
    i32 7, label %204
    i32 18, label %215
  ]

149:                                              ; preds = %147
  %150 = load ptr, ptr %7, align 8, !tbaa !4
  %151 = getelementptr inbounds i8, ptr %150, i64 0
  %152 = load i8, ptr %151, align 1, !tbaa !13
  %153 = zext i8 %152 to i64
  %154 = getelementptr inbounds nuw [256 x i8], ptr @namePages, i64 0, i64 %153
  %155 = load i8, ptr %154, align 1, !tbaa !13
  %156 = zext i8 %155 to i32
  %157 = shl i32 %156, 3
  %158 = load ptr, ptr %7, align 8, !tbaa !4
  %159 = getelementptr inbounds i8, ptr %158, i64 1
  %160 = load i8, ptr %159, align 1, !tbaa !13
  %161 = zext i8 %160 to i32
  %162 = ashr i32 %161, 5
  %163 = add nsw i32 %157, %162
  %164 = sext i32 %163 to i64
  %165 = getelementptr inbounds [320 x i32], ptr @namingBitmap, i64 0, i64 %164
  %166 = load i32, ptr %165, align 4, !tbaa !16
  %167 = load ptr, ptr %7, align 8, !tbaa !4
  %168 = getelementptr inbounds i8, ptr %167, i64 1
  %169 = load i8, ptr %168, align 1, !tbaa !13
  %170 = zext i8 %169 to i32
  %171 = and i32 %170, 31
  %172 = shl i32 1, %171
  %173 = and i32 %166, %172
  %174 = icmp ne i32 %173, 0
  br i1 %174, label %178, label %175

175:                                              ; preds = %149
  %176 = load ptr, ptr %7, align 8, !tbaa !4
  %177 = load ptr, ptr %9, align 8, !tbaa !9
  store ptr %176, ptr %177, align 8, !tbaa !4
  store i32 0, ptr %5, align 4
  br label %224

178:                                              ; preds = %149
  br label %179

179:                                              ; preds = %147, %147, %147, %147, %147, %178
  %180 = load ptr, ptr %7, align 8, !tbaa !4
  %181 = getelementptr inbounds i8, ptr %180, i64 2
  store ptr %181, ptr %7, align 8, !tbaa !4
  br label %222

182:                                              ; preds = %147
  %183 = load ptr, ptr %8, align 8, !tbaa !4
  %184 = load ptr, ptr %7, align 8, !tbaa !4
  %185 = ptrtoint ptr %183 to i64
  %186 = ptrtoint ptr %184 to i64
  %187 = sub i64 %185, %186
  %188 = icmp slt i64 %187, 2
  br i1 %188, label %189, label %190

189:                                              ; preds = %182
  store i32 -2, ptr %5, align 4
  br label %224

190:                                              ; preds = %182
  %191 = load ptr, ptr %7, align 8, !tbaa !4
  %192 = load ptr, ptr %9, align 8, !tbaa !9
  store ptr %191, ptr %192, align 8, !tbaa !4
  store i32 0, ptr %5, align 4
  br label %224

193:                                              ; preds = %147
  %194 = load ptr, ptr %8, align 8, !tbaa !4
  %195 = load ptr, ptr %7, align 8, !tbaa !4
  %196 = ptrtoint ptr %194 to i64
  %197 = ptrtoint ptr %195 to i64
  %198 = sub i64 %196, %197
  %199 = icmp slt i64 %198, 3
  br i1 %199, label %200, label %201

200:                                              ; preds = %193
  store i32 -2, ptr %5, align 4
  br label %224

201:                                              ; preds = %193
  %202 = load ptr, ptr %7, align 8, !tbaa !4
  %203 = load ptr, ptr %9, align 8, !tbaa !9
  store ptr %202, ptr %203, align 8, !tbaa !4
  store i32 0, ptr %5, align 4
  br label %224

204:                                              ; preds = %147
  %205 = load ptr, ptr %8, align 8, !tbaa !4
  %206 = load ptr, ptr %7, align 8, !tbaa !4
  %207 = ptrtoint ptr %205 to i64
  %208 = ptrtoint ptr %206 to i64
  %209 = sub i64 %207, %208
  %210 = icmp slt i64 %209, 4
  br i1 %210, label %211, label %212

211:                                              ; preds = %204
  store i32 -2, ptr %5, align 4
  br label %224

212:                                              ; preds = %204
  %213 = load ptr, ptr %7, align 8, !tbaa !4
  %214 = load ptr, ptr %9, align 8, !tbaa !9
  store ptr %213, ptr %214, align 8, !tbaa !4
  store i32 0, ptr %5, align 4
  br label %224

215:                                              ; preds = %147
  %216 = load ptr, ptr %7, align 8, !tbaa !4
  %217 = getelementptr inbounds i8, ptr %216, i64 2
  %218 = load ptr, ptr %9, align 8, !tbaa !9
  store ptr %217, ptr %218, align 8, !tbaa !4
  store i32 28, ptr %5, align 4
  br label %224

219:                                              ; preds = %147
  %220 = load ptr, ptr %7, align 8, !tbaa !4
  %221 = load ptr, ptr %9, align 8, !tbaa !9
  store ptr %220, ptr %221, align 8, !tbaa !4
  store i32 0, ptr %5, align 4
  br label %224

222:                                              ; preds = %179
  br label %116, !llvm.loop !157

223:                                              ; preds = %116
  store i32 -1, ptr %5, align 4
  br label %224

224:                                              ; preds = %223, %219, %215, %212, %211, %201, %200, %190, %189, %175, %112, %109, %106, %105, %95, %94, %84, %83, %69, %16
  %225 = load i32, ptr %5, align 4
  ret i32 %225
}