; Function Attrs: nofree norecurse nosync nounwind memory(argmem: readwrite) uwtable
define internal fastcc range(i32 -2, 29) i32 @big2_scanPercent(ptr noundef readonly captures(none) %0, ptr noundef %1, ptr noundef %2, ptr noundef writeonly captures(none) %3) unnamed_addr #4 {
  %5 = ptrtoint ptr %2 to i64
  %6 = ptrtoint ptr %1 to i64
  %7 = sub i64 %5, %6
  %8 = icmp sgt i64 %7, 1
  br i1 %8, label %9, label %.loopexit

9:                                                ; preds = %4
  %10 = load i8, ptr %1, align 1, !tbaa !9
  switch i8 %10, label %unicode_byte_type.exit.thread106 [
    i8 0, label %unicode_byte_type.exit
    i8 -40, label %unicode_byte_type.exit.thread109
    i8 -39, label %unicode_byte_type.exit.thread109
    i8 -38, label %unicode_byte_type.exit.thread109
    i8 -37, label %unicode_byte_type.exit.thread109
    i8 -36, label %.loopexit.sink.split
    i8 -35, label %.loopexit.sink.split
    i8 -34, label %.loopexit.sink.split
    i8 -33, label %.loopexit.sink.split
    i8 -1, label %11
  ]

11:                                               ; preds = %9
  %12 = getelementptr inbounds nuw i8, ptr %1, i64 1
  %13 = load i8, ptr %12, align 1, !tbaa !9
  %switch.i = icmp ugt i8 %13, -3
  br i1 %switch.i, label %.loopexit.sink.split, label %unicode_byte_type.exit.thread106

unicode_byte_type.exit:                           ; preds = %9
  %14 = getelementptr inbounds nuw i8, ptr %0, i64 128
  %15 = getelementptr inbounds nuw i8, ptr %1, i64 1
  %16 = load i8, ptr %15, align 1, !tbaa !9
  %17 = zext i8 %16 to i64
  %18 = getelementptr inbounds nuw [256 x i8], ptr %14, i64 0, i64 %17
  %19 = load i8, ptr %18, align 1, !tbaa !9
  switch i8 %19, label %.loopexit.sink.split [
    i8 29, label %unicode_byte_type.exit.thread106
    i8 22, label %36
    i8 24, label %36
    i8 30, label %44
    i8 6, label %41
    i8 7, label %unicode_byte_type.exit.thread109
    i8 21, label %44
    i8 10, label %44
    i8 9, label %44
  ]

unicode_byte_type.exit.thread106:                 ; preds = %9, %11, %unicode_byte_type.exit
  %20 = zext i8 %10 to i64
  %21 = getelementptr inbounds nuw [256 x i8], ptr @nmstrtPages, i64 0, i64 %20
  %22 = load i8, ptr %21, align 1, !tbaa !9
  %23 = zext i8 %22 to i32
  %24 = shl nuw nsw i32 %23, 3
  %25 = getelementptr inbounds nuw i8, ptr %1, i64 1
  %26 = load i8, ptr %25, align 1, !tbaa !9
  %27 = zext i8 %26 to i32
  %28 = lshr i32 %27, 5
  %29 = or disjoint i32 %28, %24
  %30 = zext nneg i32 %29 to i64
  %31 = getelementptr inbounds nuw [320 x i32], ptr @namingBitmap, i64 0, i64 %30
  %32 = load i32, ptr %31, align 4, !tbaa !14
  %33 = and i32 %27, 31
  %34 = shl nuw i32 1, %33
  %35 = and i32 %34, %32
  %.not = icmp eq i32 %35, 0
  br i1 %.not, label %.loopexit.sink.split, label %36

36:                                               ; preds = %unicode_byte_type.exit.thread106, %unicode_byte_type.exit, %unicode_byte_type.exit
  %.05884 = getelementptr inbounds nuw i8, ptr %1, i64 2
  %37 = ptrtoint ptr %.05884 to i64
  %38 = sub i64 %5, %37
  %39 = icmp sgt i64 %38, 1
  br i1 %39, label %.lr.ph, label %.loopexit

.lr.ph:                                           ; preds = %36
  %40 = getelementptr inbounds nuw i8, ptr %0, i64 128
  br label %45

41:                                               ; preds = %unicode_byte_type.exit
  %42 = icmp eq i64 %7, 2
  br i1 %42, label %.loopexit, label %.loopexit.sink.split

unicode_byte_type.exit.thread109:                 ; preds = %9, %9, %9, %9, %unicode_byte_type.exit
  %43 = icmp samesign ult i64 %7, 4
  br i1 %43, label %.loopexit, label %.loopexit.sink.split

44:                                               ; preds = %unicode_byte_type.exit, %unicode_byte_type.exit, %unicode_byte_type.exit, %unicode_byte_type.exit
  br label %.loopexit.sink.split

45:                                               ; preds = %.lr.ph, %72
  %46 = phi i64 [ %38, %.lr.ph ], [ %74, %72 ]
  %.05886 = phi ptr [ %.05884, %.lr.ph ], [ %.058, %72 ]
  %.pn85 = phi ptr [ %1, %.lr.ph ], [ %.05886, %72 ]
  %47 = load i8, ptr %.05886, align 1, !tbaa !9
  switch i8 %47, label %unicode_byte_type.exit65.thread112 [
    i8 0, label %unicode_byte_type.exit65
    i8 -40, label %unicode_byte_type.exit65.thread115
    i8 -39, label %unicode_byte_type.exit65.thread115
    i8 -38, label %unicode_byte_type.exit65.thread115
    i8 -37, label %unicode_byte_type.exit65.thread115
    i8 -36, label %.loopexit.sink.split
    i8 -35, label %.loopexit.sink.split
    i8 -34, label %.loopexit.sink.split
    i8 -33, label %.loopexit.sink.split
    i8 -1, label %48
  ]

48:                                               ; preds = %45
  %49 = getelementptr inbounds nuw i8, ptr %.pn85, i64 3
  %50 = load i8, ptr %49, align 1, !tbaa !9
  %switch.i63 = icmp ugt i8 %50, -3
  br i1 %switch.i63, label %.loopexit.sink.split, label %unicode_byte_type.exit65.thread112

unicode_byte_type.exit65:                         ; preds = %45
  %51 = getelementptr inbounds nuw i8, ptr %.pn85, i64 3
  %52 = load i8, ptr %51, align 1, !tbaa !9
  %53 = zext i8 %52 to i64
  %54 = getelementptr inbounds nuw [256 x i8], ptr %40, i64 0, i64 %53
  %55 = load i8, ptr %54, align 1, !tbaa !9
  switch i8 %55, label %.loopexit.sink.split [
    i8 29, label %unicode_byte_type.exit65.thread112
    i8 22, label %72
    i8 24, label %72
    i8 25, label %72
    i8 26, label %72
    i8 27, label %72
    i8 18, label %79
    i8 6, label %76
    i8 7, label %unicode_byte_type.exit65.thread115
  ]

unicode_byte_type.exit65.thread112:               ; preds = %45, %48, %unicode_byte_type.exit65
  %56 = zext i8 %47 to i64
  %57 = getelementptr inbounds nuw [256 x i8], ptr @namePages, i64 0, i64 %56
  %58 = load i8, ptr %57, align 1, !tbaa !9
  %59 = zext i8 %58 to i32
  %60 = shl nuw nsw i32 %59, 3
  %61 = getelementptr inbounds nuw i8, ptr %.pn85, i64 3
  %62 = load i8, ptr %61, align 1, !tbaa !9
  %63 = zext i8 %62 to i32
  %64 = lshr i32 %63, 5
  %65 = or disjoint i32 %64, %60
  %66 = zext nneg i32 %65 to i64
  %67 = getelementptr inbounds nuw [320 x i32], ptr @namingBitmap, i64 0, i64 %66
  %68 = load i32, ptr %67, align 4, !tbaa !14
  %69 = and i32 %63, 31
  %70 = shl nuw i32 1, %69
  %71 = and i32 %70, %68
  %.not62 = icmp eq i32 %71, 0
  br i1 %.not62, label %.loopexit.sink.split, label %72

72:                                               ; preds = %unicode_byte_type.exit65.thread112, %unicode_byte_type.exit65, %unicode_byte_type.exit65, %unicode_byte_type.exit65, %unicode_byte_type.exit65, %unicode_byte_type.exit65
  %.058 = getelementptr inbounds nuw i8, ptr %.05886, i64 2
  %73 = ptrtoint ptr %.058 to i64
  %74 = sub i64 %5, %73
  %75 = icmp sgt i64 %74, 1
  br i1 %75, label %45, label %.loopexit, !llvm.loop !143

76:                                               ; preds = %unicode_byte_type.exit65
  %77 = icmp eq i64 %46, 2
  br i1 %77, label %.loopexit, label %.loopexit.sink.split

unicode_byte_type.exit65.thread115:               ; preds = %45, %45, %45, %45, %unicode_byte_type.exit65
  %78 = icmp samesign ult i64 %46, 4
  br i1 %78, label %.loopexit, label %.loopexit.sink.split

79:                                               ; preds = %unicode_byte_type.exit65
  %80 = getelementptr inbounds nuw i8, ptr %.pn85, i64 4
  br label %.loopexit.sink.split

.loopexit.sink.split:                             ; preds = %unicode_byte_type.exit65, %48, %45, %45, %45, %45, %unicode_byte_type.exit65.thread112, %unicode_byte_type.exit65.thread115, %76, %unicode_byte_type.exit, %11, %9, %9, %9, %9, %unicode_byte_type.exit.thread109, %41, %unicode_byte_type.exit.thread106, %44, %79
  %.05886.lcssa123.sink = phi ptr [ %80, %79 ], [ %1, %44 ], [ %1, %unicode_byte_type.exit.thread106 ], [ %1, %41 ], [ %1, %unicode_byte_type.exit.thread109 ], [ %1, %9 ], [ %1, %9 ], [ %1, %9 ], [ %1, %9 ], [ %1, %11 ], [ %1, %unicode_byte_type.exit ], [ %.05886, %76 ], [ %.05886, %unicode_byte_type.exit65.thread115 ], [ %.05886, %unicode_byte_type.exit65.thread112 ], [ %.05886, %45 ], [ %.05886, %45 ], [ %.05886, %45 ], [ %.05886, %45 ], [ %.05886, %48 ], [ %.05886, %unicode_byte_type.exit65 ]
  %.0.ph = phi i32 [ 28, %79 ], [ 22, %44 ], [ 0, %unicode_byte_type.exit.thread106 ], [ 0, %41 ], [ 0, %unicode_byte_type.exit.thread109 ], [ 0, %9 ], [ 0, %9 ], [ 0, %9 ], [ 0, %9 ], [ 0, %11 ], [ 0, %unicode_byte_type.exit ], [ 0, %76 ], [ 0, %unicode_byte_type.exit65.thread115 ], [ 0, %unicode_byte_type.exit65.thread112 ], [ 0, %45 ], [ 0, %45 ], [ 0, %45 ], [ 0, %45 ], [ 0, %48 ], [ 0, %unicode_byte_type.exit65 ]
  store ptr %.05886.lcssa123.sink, ptr %3, align 8, !tbaa !4
  br label %.loopexit

.loopexit:                                        ; preds = %72, %.loopexit.sink.split, %36, %unicode_byte_type.exit65.thread115, %76, %unicode_byte_type.exit.thread109, %41, %4
  %.0 = phi i32 [ -1, %4 ], [ -2, %41 ], [ -2, %unicode_byte_type.exit.thread109 ], [ -2, %76 ], [ -2, %unicode_byte_type.exit65.thread115 ], [ -1, %36 ], [ %.0.ph, %.loopexit.sink.split ], [ -1, %72 ]
  ret i32 %.0
}